; Function Attrs: nounwind uwtable
define dso_local void @auth_g_destroy(ptr noundef %0) local_unnamed_addr #2 {
  %.not = icmp eq ptr %0, null
  br i1 %.not, label %8, label %2

2:                                                ; preds = %1
  %3 = load ptr, ptr @ops, align 8
  %4 = load i32, ptr %0, align 4
  %5 = sext i32 %4 to i64
  %6 = getelementptr inbounds %struct.auth_ops_t, ptr %3, i64 %5, i32 4
  %7 = load ptr, ptr %6, align 8
  tail call void %7(ptr noundef nonnull %0) #12
  br label %8

8:                                                ; preds = %1, %2
  ret void
}